; Function Attrs: nofree norecurse nosync nounwind memory(argmem: readwrite) uwtable
define internal void @pred8x16_left_dc_12_c(ptr noundef captures(none) %0, i64 noundef %1) #3 {
  %3 = ashr i64 %1, 1
  %invariant.gep.i = getelementptr i8, ptr %0, i64 -2
  br label %4

4:                                                ; preds = %4, %2
  %indvars.iv.i = phi i64 [ 0, %2 ], [ %indvars.iv.next.i, %4 ]
  %.03338.i = phi i32 [ 0, %2 ], [ %8, %4 ]
  %.03437.i = phi i32 [ 0, %2 ], [ %13, %4 ]
  %5 = mul nsw i64 %indvars.iv.i, %3
  %gep.i = getelementptr i16, ptr %invariant.gep.i, i64 %5
  %6 = load i16, ptr %gep.i, align 2, !tbaa !9
  %7 = zext i16 %6 to i32
  %8 = add nuw nsw i32 %.03338.i, %7
  %9 = add nuw nsw i64 %indvars.iv.i, 4
  %10 = mul nsw i64 %9, %3
  %gep36.i = getelementptr i16, ptr %invariant.gep.i, i64 %10
  %11 = load i16, ptr %gep36.i, align 2, !tbaa !9
  %12 = zext i16 %11 to i32
  %13 = add nuw nsw i32 %.03437.i, %12
  %indvars.iv.next.i = add nuw nsw i64 %indvars.iv.i, 1
  %exitcond.not.i = icmp eq i64 %indvars.iv.next.i, 4
  br i1 %exitcond.not.i, label %14, label %4, !llvm.loop !147

14:                                               ; preds = %4
  %15 = add nuw nsw i32 %8, 2
  %16 = lshr i32 %15, 2
  %17 = zext nneg i32 %16 to i64
  %18 = mul i64 %17, 281479271743489
  br label %19

19:                                               ; preds = %19, %14
  %indvars.iv44.i = phi i64 [ 0, %14 ], [ %indvars.iv.next45.i, %19 ]
  %20 = mul nsw i64 %indvars.iv44.i, %3
  %21 = getelementptr inbounds i16, ptr %0, i64 %20
  store i64 %18, ptr %21, align 8, !tbaa !8
  %22 = getelementptr inbounds nuw i8, ptr %21, i64 8
  store i64 %18, ptr %22, align 8, !tbaa !8
  %indvars.iv.next45.i = add nuw nsw i64 %indvars.iv44.i, 1
  %exitcond47.not.i = icmp eq i64 %indvars.iv.next45.i, 4
  br i1 %exitcond47.not.i, label %.preheader.preheader.i, label %19, !llvm.loop !148

.preheader.preheader.i:                           ; preds = %19
  %23 = add nuw nsw i32 %13, 2
  %24 = lshr i32 %23, 2
  %25 = zext nneg i32 %24 to i64
  %26 = mul i64 %25, 281479271743489
  br label %.preheader.i

.preheader.i:                                     ; preds = %.preheader.i, %.preheader.preheader.i
  %indvars.iv48.i = phi i64 [ 4, %.preheader.preheader.i ], [ %indvars.iv.next49.i, %.preheader.i ]
  %27 = mul nsw i64 %indvars.iv48.i, %3
  %28 = getelementptr inbounds i16, ptr %0, i64 %27
  store i64 %26, ptr %28, align 8, !tbaa !8
  %29 = getelementptr inbounds nuw i8, ptr %28, i64 8
  store i64 %26, ptr %29, align 8, !tbaa !8
  %indvars.iv.next49.i = add nuw nsw i64 %indvars.iv48.i, 1
  %exitcond51.not.i = icmp eq i64 %indvars.iv.next49.i, 8
  br i1 %exitcond51.not.i, label %pred8x8_left_dc_12_c.exit, label %.preheader.i, !llvm.loop !149

pred8x8_left_dc_12_c.exit:                        ; preds = %.preheader.i
  %30 = shl nsw i64 %1, 3
  %31 = getelementptr inbounds i8, ptr %0, i64 %30
  %invariant.gep.i4 = getelementptr i8, ptr %31, i64 -2
  br label %32

32:                                               ; preds = %32, %pred8x8_left_dc_12_c.exit
  %indvars.iv.i5 = phi i64 [ 0, %pred8x8_left_dc_12_c.exit ], [ %indvars.iv.next.i10, %32 ]
  %.03338.i6 = phi i32 [ 0, %pred8x8_left_dc_12_c.exit ], [ %36, %32 ]
  %.03437.i7 = phi i32 [ 0, %pred8x8_left_dc_12_c.exit ], [ %41, %32 ]
  %33 = mul nsw i64 %indvars.iv.i5, %3
  %gep.i8 = getelementptr i16, ptr %invariant.gep.i4, i64 %33
  %34 = load i16, ptr %gep.i8, align 2, !tbaa !9
  %35 = zext i16 %34 to i32
  %36 = add nuw nsw i32 %.03338.i6, %35
  %37 = add nuw nsw i64 %indvars.iv.i5, 4
  %38 = mul nsw i64 %37, %3
  %gep36.i9 = getelementptr i16, ptr %invariant.gep.i4, i64 %38
  %39 = load i16, ptr %gep36.i9, align 2, !tbaa !9
  %40 = zext i16 %39 to i32
  %41 = add nuw nsw i32 %.03437.i7, %40
  %indvars.iv.next.i10 = add nuw nsw i64 %indvars.iv.i5, 1
  %exitcond.not.i11 = icmp eq i64 %indvars.iv.next.i10, 4
  br i1 %exitcond.not.i11, label %42, label %32, !llvm.loop !147

42:                                               ; preds = %32
  %43 = add nuw nsw i32 %36, 2
  %44 = lshr i32 %43, 2
  %45 = zext nneg i32 %44 to i64
  %46 = mul i64 %45, 281479271743489
  br label %47

47:                                               ; preds = %47, %42
  %indvars.iv44.i12 = phi i64 [ 0, %42 ], [ %indvars.iv.next45.i13, %47 ]
  %48 = mul nsw i64 %indvars.iv44.i12, %3
  %49 = getelementptr inbounds i16, ptr %31, i64 %48
  store i64 %46, ptr %49, align 8, !tbaa !8
  %50 = getelementptr inbounds nuw i8, ptr %49, i64 8
  store i64 %46, ptr %50, align 8, !tbaa !8
  %indvars.iv.next45.i13 = add nuw nsw i64 %indvars.iv44.i12, 1
  %exitcond47.not.i14 = icmp eq i64 %indvars.iv.next45.i13, 4
  br i1 %exitcond47.not.i14, label %.preheader.preheader.i15, label %47, !llvm.loop !148

.preheader.preheader.i15:                         ; preds = %47
  %51 = add nuw nsw i32 %41, 2
  %52 = lshr i32 %51, 2
  %53 = zext nneg i32 %52 to i64
  %54 = mul i64 %53, 281479271743489
  br label %.preheader.i16

.preheader.i16:                                   ; preds = %.preheader.i16, %.preheader.preheader.i15
  %indvars.iv48.i17 = phi i64 [ 4, %.preheader.preheader.i15 ], [ %indvars.iv.next49.i18, %.preheader.i16 ]
  %55 = mul nsw i64 %indvars.iv48.i17, %3
  %56 = getelementptr inbounds i16, ptr %31, i64 %55
  store i64 %54, ptr %56, align 8, !tbaa !8
  %57 = getelementptr inbounds nuw i8, ptr %56, i64 8
  store i64 %54, ptr %57, align 8, !tbaa !8
  %indvars.iv.next49.i18 = add nuw nsw i64 %indvars.iv48.i17, 1
  %exitcond51.not.i19 = icmp eq i64 %indvars.iv.next49.i18, 8
  br i1 %exitcond51.not.i19, label %pred8x8_left_dc_12_c.exit20, label %.preheader.i16, !llvm.loop !149

pred8x8_left_dc_12_c.exit20:                      ; preds = %.preheader.i16
  ret void
}